target datalayout = "e-m:e-p270:32:32-p271:32:32-p272:64:64-i64:64-i128:128-f80:128-n8:16:32:64-S128"
target triple = "x86_64-pc-linux-gnu"

%struct.tlsinfo = type { i32, i8, i8, ptr }

@mq_handle = internal global ptr null, align 8

; Function Attrs: null_pointer_is_valid sspstrong uwtable
define internal zeroext i1 @dissect_mq_heur(ptr noundef %0, ptr noundef %1, ptr noundef %2, i1 noundef zeroext %3, ptr noundef %4) #0 {
  %6 = alloca i1, align 1
  %7 = alloca ptr, align 8
  %8 = alloca ptr, align 8
  %9 = alloca ptr, align 8
  %10 = alloca i8, align 1
  %11 = alloca ptr, align 8
  %12 = alloca i32, align 4
  %13 = alloca ptr, align 8
  %14 = alloca i32, align 4
  store ptr %0, ptr %7, align 8
  store ptr %1, ptr %8, align 8
  store ptr %2, ptr %9, align 8
  %15 = zext i1 %3 to i8
  store i8 %15, ptr %10, align 1
  store ptr %4, ptr %11, align 8
  %16 = load ptr, ptr %7, align 8
  %17 = call i32 @tvb_captured_length(ptr noundef %16)
  %18 = icmp uge i32 %17, 4
  br i1 %18, label %19, label %57

19:                                               ; preds = %5
  %20 = load ptr, ptr %7, align 8
  %21 = call i32 @tvb_reported_length(ptr noundef %20)
  %22 = icmp uge i32 %21, 28
  br i1 %22, label %23, label %57

23:                                               ; preds = %19
  call void @llvm.lifetime.start.p0(i64 4, ptr %12) #9
  %24 = load ptr, ptr %7, align 8
  %25 = call i32 @tvb_get_ntohl(ptr noundef %24, i32 noundef 0)
  store i32 %25, ptr %12, align 4
  %26 = load i32, ptr %12, align 4
  %27 = and i32 %26, -256
  %28 = icmp eq i32 %27, 1414744064
  br i1 %28, label %33, label %29

29:                                               ; preds = %23
  %30 = load i32, ptr %12, align 4
  %31 = and i32 %30, -256
  %32 = icmp eq i32 %31, -471676928
  br i1 %32, label %33, label %53

33:                                               ; preds = %29, %23
  call void @llvm.lifetime.start.p0(i64 8, ptr %13) #9
  %34 = load ptr, ptr %8, align 8
  %35 = call ptr @find_or_create_conversation(ptr noundef %34)
  store ptr %35, ptr %13, align 8
  %36 = load i8, ptr %10, align 1, !range !6, !noundef !7
  %37 = trunc i8 %36 to i1
  br i1 %37, label %38, label %41

38:                                               ; preds = %33
  %39 = load ptr, ptr %13, align 8
  %40 = load ptr, ptr @mq_handle, align 8
  call void @conversation_set_dissector(ptr noundef %39, ptr noundef %40)
  br label %48

41:                                               ; preds = %33
  %42 = load ptr, ptr %11, align 8
  %43 = icmp ne ptr %42, null
  br i1 %43, label %44, label %47

44:                                               ; preds = %41
  %45 = load ptr, ptr @mq_handle, align 8
  %46 = load ptr, ptr %11, align 8
  store ptr %45, ptr %46, align 8
  br label %47

47:                                               ; preds = %44, %41
  br label %48

48:                                               ; preds = %47, %38
  %49 = load ptr, ptr %7, align 8
  %50 = load ptr, ptr %8, align 8
  %51 = load ptr, ptr %9, align 8
  %52 = call i32 @reassemble_mq(ptr noundef %49, ptr noundef %50, ptr noundef %51, ptr noundef null)
  store i1 true, ptr %6, align 1
  store i32 1, ptr %14, align 4
  call void @llvm.lifetime.end.p0(i64 8, ptr %13) #9
  br label %54

53:                                               ; preds = %29
  store i32 0, ptr %14, align 4
  br label %54

54:                                               ; preds = %53, %48
  call void @llvm.lifetime.end.p0(i64 4, ptr %12) #9
  %55 = load i32, ptr %14, align 4
  switch i32 %55, label %60 [
    i32 0, label %56
    i32 1, label %58
  ]

56:                                               ; preds = %54
  br label %57

57:                                               ; preds = %56, %19, %5
  store i1 false, ptr %6, align 1
  br label %58

58:                                               ; preds = %57, %54
  %59 = load i1, ptr %6, align 1
  ret i1 %59

60:                                               ; preds = %54
  unreachable
}

; Function Attrs: null_pointer_is_valid sspstrong uwtable
define internal zeroext i1 @dissect_mq_heur_ssl(ptr noundef %0, ptr noundef %1, ptr noundef %2, ptr noundef %3) #0 {
  %5 = alloca ptr, align 8
  %6 = alloca ptr, align 8
  %7 = alloca ptr, align 8
  %8 = alloca ptr, align 8
  %9 = alloca ptr, align 8
  store ptr %0, ptr %5, align 8
  store ptr %1, ptr %6, align 8
  store ptr %2, ptr %7, align 8
  store ptr %3, ptr %8, align 8
  call void @llvm.lifetime.start.p0(i64 8, ptr %9) #9
  %10 = load ptr, ptr %8, align 8
  store ptr %10, ptr %9, align 8
  %11 = load ptr, ptr %5, align 8
  %12 = load ptr, ptr %6, align 8
  %13 = load ptr, ptr %7, align 8
  %14 = load ptr, ptr %9, align 8
  %15 = getelementptr inbounds nuw %struct.tlsinfo, ptr %14, i32 0, i32 3
  %16 = load ptr, ptr %15, align 8
  %17 = call zeroext i1 @dissect_mq_heur(ptr noundef %11, ptr noundef %12, ptr noundef %13, i1 noundef zeroext false, ptr noundef %16)
  call void @llvm.lifetime.end.p0(i64 8, ptr %9) #9
  ret i1 %17
}