; Function Attrs: null_pointer_is_valid sspstrong uwtable
define internal noundef zeroext i1 @dissect_mq_heur_ssl(ptr noundef %0, ptr noundef %1, ptr noundef %2, ptr noundef readonly captures(none) %3) #0 {
  %5 = getelementptr inbounds nuw i8, ptr %3, i64 8
  %6 = load ptr, ptr %5, align 8
  %7 = tail call i32 @tvb_captured_length(ptr noundef %0)
  %8 = icmp ugt i32 %7, 3
  br i1 %8, label %9, label %dissect_mq_heur.exit

9:                                                ; preds = %4
  %10 = tail call i32 @tvb_reported_length(ptr noundef %0)
  %11 = icmp ugt i32 %10, 27
  br i1 %11, label %12, label %dissect_mq_heur.exit

12:                                               ; preds = %9
  %13 = tail call i32 @tvb_get_ntohl(ptr noundef %0, i32 noundef 0)
  %14 = and i32 %13, -256
  switch i32 %14, label %dissect_mq_heur.exit [
    i32 1414744064, label %15
    i32 -471676928, label %15
  ]

15:                                               ; preds = %12, %12
  %16 = tail call ptr @find_or_create_conversation(ptr noundef %1)
  %.not.i = icmp eq ptr %6, null
  br i1 %.not.i, label %19, label %17

17:                                               ; preds = %15
  %18 = load ptr, ptr @mq_handle, align 8
  store ptr %18, ptr %6, align 8
  br label %19

19:                                               ; preds = %17, %15
  %20 = tail call i32 @reassemble_mq(ptr noundef %0, ptr noundef %1, ptr noundef %2, ptr poison)
  br label %dissect_mq_heur.exit

dissect_mq_heur.exit:                             ; preds = %4, %9, %12, %19
  %.1.i = phi i1 [ true, %19 ], [ false, %9 ], [ false, %4 ], [ false, %12 ]
  ret i1 %.1.i
}